(iRobozovArenaConfig
RobozovArenaConfig
p1
(dp2
S'config_data'
p3
(dp4
S'ArenaNetwork'
p5
(dp6
S'ip'
p7
S'100.0.0.1'
p8
sS'rx_port'
p9
S'30000'
p10
ssS'RemotesNetwork'
p11
(dp12
S'subnet'
p13
S'100.1.0.0'
p14
ssS'ServerNetwork'
p15
(dp16
g7
S'100.0.0.2'
p17
sg9
S'30001'
p18
ssS'RobotsNetwork'
p19
(dp20
g13
S'100.2.0.0'
p21
ssS'Teams'
p22
(lp23
(dp24
S'name'
p25
S'CyberKids'
p26
sS'server_robot_port'
p27
S'10003'
p28
sS'server_remote_port'
p29
S'10011'
p30
sS'Robot_ip'
p31
S'192.168.1.230'
p32
sS'id'
p33
S'1'
sS'Remote_ip'
p34
S'10.0.0.101'
p35
sa(dp36
g25
S'The Silver Robot'
p37
sg27
S'10022'
p38
sg29
S'10021'
p39
sg31
S'192.168.1.102'
p40
sg33
S'2'
sg34
S'10.0.0.102'
p41
sa(dp42
g25
S'Ogi and the Cockroaches'
p43
sg27
S'10032'
p44
sg29
S'10031'
p45
sg31
S'192.168.1.103'
p46
sg33
S'3'
sg34
S'10.0.0.103'
p47
sa(dp48
g25
S'Garbage Collector'
p49
sg27
S'10042'
p50
sg29
S'10041'
p51
sg31
S'192.168.1.104'
p52
sg33
S'4'
sg34
S'10.0.0.104'
p53
sa(dp54
g25
S'RoboDos'
p55
sg27
S'10052'
p56
sg29
S'10051'
p57
sg31
S'192.168.1.105'
p58
sg33
S'5'
sg34
S'10.0.0.105'
p59
sa(dp60
g25
S'Two Hills'
p61
sg27
S'10062'
p62
sg29
S'10061'
p63
sg31
S'192.168.1.106'
p64
sg33
S'6'
sg34
S'10.0.0.106'
p65
sassb.