(lp1
(S'7'
S'team7_debug'
p2
S'5'
S'team5'
p3
S'0'
tp4
a(S'1'
S'team1'
p5
S'6'
S'team6'
p6
S'0'
tp7
a(S'2'
S'team2'
p8
S'6'
g6
S'0'
tp9
a(S'7'
g2
S'2'
g8
S'0'
tp10
a(S'7'
g2
S'6'
g6
S'0'
tp11
a(S'2'
g8
S'4'
S'team4'
p12
S'0'
tp13
a(S'3'
S'team3'
p14
S'2'
g8
S'0'
tp15
a(S'2'
g8
S'5'
g3
S'0'
tp16
a(S'5'
g3
S'4'
g12
S'0'
tp17
a(S'1'
g5
S'7'
g2
S'0'
tp18
a(S'3'
g14
S'6'
g6
S'0'
tp19
a(S'1'
g5
S'5'
g3
S'0'
tp20
a(S'3'
g14
S'5'
g3
S'0'
tp21
a(S'1'
g5
S'2'
g8
S'0'
tp22
a(S'6'
g6
S'4'
g12
S'0'
tp23
a(S'1'
g5
S'4'
g12
S'0'
tp24
a(S'7'
g2
S'4'
g12
S'0'
tp25
a(S'5'
g3
S'6'
g6
S'0'
tp26
a(S'3'
g14
S'4'
g12
S'0'
tp27
a(S'1'
g5
S'3'
g14
S'0'
tp28
a(S'3'
g14
S'7'
g2
S'0'
tp29
a.